target datalayout = "e-m:e-p270:32:32-p271:32:32-p272:64:64-i64:64-i128:128-f80:128-n8:16:32:64-S128"
target triple = "x86_64-unknown-linux-gnu"

%"class.icu_75::Array1D" = type <{ %"class.icu_75::ReadArray1D", ptr, ptr, i32, [4 x i8] }>
%"class.icu_75::ReadArray1D" = type { ptr }

@_ZTVN6icu_757Array1DE = unnamed_addr constant { [6 x ptr] } { [6 x ptr] [ptr null, ptr @_ZTIN6icu_757Array1DE, ptr @_ZN6icu_757Array1DD1Ev, ptr @_ZN6icu_757Array1DD0Ev, ptr @_ZNK6icu_757Array1D2d1Ev, ptr @_ZNK6icu_757Array1D3getEi] }, align 8

; Function Attrs: mustprogress nounwind uwtable
define void @_ZN6icu_7511ReadArray1DD2Ev(ptr noundef nonnull align 8 dereferenceable(8) %this) unnamed_addr #0 align 2 {
entry:
  %this.addr = alloca ptr, align 8
  store ptr %this, ptr %this.addr, align 8
  ret void
}

; Function Attrs: mustprogress nounwind uwtable
define void @_ZN6icu_757Array1DD2Ev(ptr noundef nonnull align 8 dereferenceable(28) %this) unnamed_addr #0 align 2 personality ptr @__gxx_personality_v0 {
entry:
  %this.addr = alloca ptr, align 8
  store ptr %this, ptr %this.addr, align 8
  %this1 = load ptr, ptr %this.addr, align 8
  store ptr getelementptr inbounds ({ [6 x ptr] }, ptr @_ZTVN6icu_757Array1DE, i32 0, i32 0, i32 2), ptr %this1, align 8
  %memory_ = getelementptr inbounds %"class.icu_75::Array1D", ptr %this1, i32 0, i32 1
  %0 = load ptr, ptr %memory_, align 8
  invoke void @uprv_free_75(ptr noundef %0)
          to label %invoke.cont unwind label %terminate.lpad

invoke.cont:                                      ; preds = %entry
  call void @_ZN6icu_7511ReadArray1DD2Ev(ptr noundef nonnull align 8 dereferenceable(8) %this1) #12
  ret void

terminate.lpad:                                   ; preds = %entry
  %1 = landingpad { ptr, i32 }
          catch ptr null
  %2 = extractvalue { ptr, i32 } %1, 0
  call void @__clang_call_terminate(ptr %2) #14
  unreachable
}