; Function Attrs: mustprogress nounwind uwtable
define void @_ZN6icu_757Array1DD2Ev(ptr nocapture noundef nonnull align 8 dereferenceable(28) %this) unnamed_addr #0 align 2 personality ptr @__gxx_personality_v0 {
entry:
  store ptr getelementptr inbounds ({ [6 x ptr] }, ptr @_ZTVN6icu_757Array1DE, i64 0, i32 0, i64 2), ptr %this, align 8
  %memory_ = getelementptr inbounds i8, ptr %this, i64 8
  %0 = load ptr, ptr %memory_, align 8
  invoke void @uprv_free_75(ptr noundef %0)
          to label %invoke.cont unwind label %terminate.lpad

invoke.cont:                                      ; preds = %entry
  ret void

terminate.lpad:                                   ; preds = %entry
  %1 = landingpad { ptr, i32 }
          catch ptr null
  %2 = extractvalue { ptr, i32 } %1, 0
  tail call void @__clang_call_terminate(ptr %2) #22
  unreachable
}